target datalayout = "e-m:e-p270:32:32-p271:32:32-p272:64:64-i64:64-i128:128-f80:128-n8:16:32:64-S128"
target triple = "x86_64-pc-linux-gnu"

%struct.SwsInternal = type { %struct.SwsContext, ptr, ptr, ptr, ptr, i32, [2 x ptr], i32, i32, ptr, i32, i32, i32, i32, i32, i32, i32, i32, i32, i32, i32, i32, i32, i32, i32, i32, i32, i32, ptr, ptr, %struct.RangeList, [3 x ptr], [2 x [4 x i32]], [2 x [4 x ptr]], i32, double, i32, ptr, ptr, i32, [2 x i32], i32, ptr, ptr, [256 x i32], [256 x i32], [256 x float], i32, i32, ptr, i32, ptr, ptr, ptr, ptr, ptr, ptr, ptr, ptr, i32, i32, i32, i32, i32, i32, ptr, ptr, i32, i32, i32, ptr, [8 x i8], [1280 x i32], [1280 x ptr], [1280 x ptr], [1280 x ptr], [176 x i32], [4 x ptr], i32, i32, i32, [4 x i32], [4 x i32], i32, i32, i32, i32, i32, i32, i32, i32, i32, i32, i64, i64, i64, i64, i64, i64, i64, i64, i64, i64, i64, [1024 x i32], [1024 x i32], i32, i64, i64, i64, i64, i64, [1024 x i32], i64, i64, [8 x i16], [8 x i32], ptr, ptr, i32, ptr, ptr, ptr, ptr, [3 x [4 x i16]], [3 x [4 x i16]], ptr, ptr, ptr, ptr, ptr, ptr, ptr, ptr, ptr, ptr, ptr, ptr, ptr, ptr, ptr, ptr, ptr, ptr, ptr, ptr, i32, i32, i64, i64, i32, ptr, i32, ptr, i32, i32, i32, i32, i32, ptr }
%struct.SwsContext = type { ptr, ptr, i32, [2 x double], i32, i32, i32, i32, i32, i32, i32, i32, i32, i32, i32, i32, i32, i32, i32, i32, i32 }
%struct.RangeList = type { ptr, i32, i32 }

; Function Attrs: nounwind uwtable
define internal i32 @packedCopyWrapper(ptr noundef %0, ptr noundef %1, ptr noundef %2, i32 noundef %3, i32 noundef %4, ptr noundef %5, ptr noundef %6) #0 {
  %8 = alloca ptr, align 8
  %9 = alloca ptr, align 8
  %10 = alloca ptr, align 8
  %11 = alloca i32, align 4
  %12 = alloca i32, align 4
  %13 = alloca ptr, align 8
  %14 = alloca ptr, align 8
  %15 = alloca i32, align 4
  %16 = alloca ptr, align 8
  %17 = alloca ptr, align 8
  %18 = alloca i32, align 4
  store ptr %0, ptr %8, align 8, !tbaa !13
  store ptr %1, ptr %9, align 8, !tbaa !52
  store ptr %2, ptr %10, align 8, !tbaa !54
  store i32 %3, ptr %11, align 4, !tbaa !9
  store i32 %4, ptr %12, align 4, !tbaa !9
  store ptr %5, ptr %13, align 8, !tbaa !52
  store ptr %6, ptr %14, align 8, !tbaa !54
  %19 = load ptr, ptr %14, align 8, !tbaa !54
  %20 = getelementptr inbounds i32, ptr %19, i64 0
  %21 = load i32, ptr %20, align 4, !tbaa !9
  %22 = load ptr, ptr %10, align 8, !tbaa !54
  %23 = getelementptr inbounds i32, ptr %22, i64 0
  %24 = load i32, ptr %23, align 4, !tbaa !9
  %25 = icmp eq i32 %21, %24
  br i1 %25, label %26, label %51

26:                                               ; preds = %7
  %27 = load ptr, ptr %10, align 8, !tbaa !54
  %28 = getelementptr inbounds i32, ptr %27, i64 0
  %29 = load i32, ptr %28, align 4, !tbaa !9
  %30 = icmp sgt i32 %29, 0
  br i1 %30, label %31, label %51

31:                                               ; preds = %26
  %32 = load ptr, ptr %13, align 8, !tbaa !52
  %33 = getelementptr inbounds ptr, ptr %32, i64 0
  %34 = load ptr, ptr %33, align 8, !tbaa !4
  %35 = load ptr, ptr %14, align 8, !tbaa !54
  %36 = getelementptr inbounds i32, ptr %35, i64 0
  %37 = load i32, ptr %36, align 4, !tbaa !9
  %38 = load i32, ptr %11, align 4, !tbaa !9
  %39 = mul nsw i32 %37, %38
  %40 = sext i32 %39 to i64
  %41 = getelementptr inbounds i8, ptr %34, i64 %40
  %42 = load ptr, ptr %9, align 8, !tbaa !52
  %43 = getelementptr inbounds ptr, ptr %42, i64 0
  %44 = load ptr, ptr %43, align 8, !tbaa !4
  %45 = load i32, ptr %12, align 4, !tbaa !9
  %46 = load ptr, ptr %14, align 8, !tbaa !54
  %47 = getelementptr inbounds i32, ptr %46, i64 0
  %48 = load i32, ptr %47, align 4, !tbaa !9
  %49 = mul nsw i32 %45, %48
  %50 = sext i32 %49 to i64
  call void @llvm.memcpy.p0.p0.i64(ptr align 1 %41, ptr align 1 %44, i64 %50, i1 false)
  br label %146

51:                                               ; preds = %26, %7
  call void @llvm.lifetime.start.p0(i64 4, ptr %15) #11
  call void @llvm.lifetime.start.p0(i64 8, ptr %16) #11
  %52 = load ptr, ptr %9, align 8, !tbaa !52
  %53 = getelementptr inbounds ptr, ptr %52, i64 0
  %54 = load ptr, ptr %53, align 8, !tbaa !4
  store ptr %54, ptr %16, align 8, !tbaa !4
  call void @llvm.lifetime.start.p0(i64 8, ptr %17) #11
  %55 = load ptr, ptr %13, align 8, !tbaa !52
  %56 = getelementptr inbounds ptr, ptr %55, i64 0
  %57 = load ptr, ptr %56, align 8, !tbaa !4
  %58 = load ptr, ptr %14, align 8, !tbaa !54
  %59 = getelementptr inbounds i32, ptr %58, i64 0
  %60 = load i32, ptr %59, align 4, !tbaa !9
  %61 = load i32, ptr %11, align 4, !tbaa !9
  %62 = mul nsw i32 %60, %61
  %63 = sext i32 %62 to i64
  %64 = getelementptr inbounds i8, ptr %57, i64 %63
  store ptr %64, ptr %17, align 8, !tbaa !4
  call void @llvm.lifetime.start.p0(i64 4, ptr %18) #11
  store i32 0, ptr %18, align 4, !tbaa !9
  br label %65

65:                                               ; preds = %113, %51
  %66 = load i32, ptr %18, align 4, !tbaa !9
  %67 = load ptr, ptr %8, align 8, !tbaa !13
  %68 = getelementptr inbounds nuw %struct.SwsInternal, ptr %67, i32 0, i32 0
  %69 = getelementptr inbounds nuw %struct.SwsContext, ptr %68, i32 0, i32 8
  %70 = load i32, ptr %69, align 8, !tbaa !55
  %71 = add nsw i32 %66, %70
  %72 = load ptr, ptr %14, align 8, !tbaa !54
  %73 = getelementptr inbounds i32, ptr %72, i64 0
  %74 = load i32, ptr %73, align 4, !tbaa !9
  %75 = icmp sge i32 %74, 0
  br i1 %75, label %76, label %80

76:                                               ; preds = %65
  %77 = load ptr, ptr %14, align 8, !tbaa !54
  %78 = getelementptr inbounds i32, ptr %77, i64 0
  %79 = load i32, ptr %78, align 4, !tbaa !9
  br label %85

80:                                               ; preds = %65
  %81 = load ptr, ptr %14, align 8, !tbaa !54
  %82 = getelementptr inbounds i32, ptr %81, i64 0
  %83 = load i32, ptr %82, align 4, !tbaa !9
  %84 = sub nsw i32 0, %83
  br label %85

85:                                               ; preds = %80, %76
  %86 = phi i32 [ %79, %76 ], [ %84, %80 ]
  %87 = icmp sle i32 %71, %86
  br i1 %87, label %88, label %111

88:                                               ; preds = %85
  %89 = load i32, ptr %18, align 4, !tbaa !9
  %90 = load ptr, ptr %8, align 8, !tbaa !13
  %91 = getelementptr inbounds nuw %struct.SwsInternal, ptr %90, i32 0, i32 0
  %92 = getelementptr inbounds nuw %struct.SwsContext, ptr %91, i32 0, i32 8
  %93 = load i32, ptr %92, align 8, !tbaa !55
  %94 = add nsw i32 %89, %93
  %95 = load ptr, ptr %10, align 8, !tbaa !54
  %96 = getelementptr inbounds i32, ptr %95, i64 0
  %97 = load i32, ptr %96, align 4, !tbaa !9
  %98 = icmp sge i32 %97, 0
  br i1 %98, label %99, label %103

99:                                               ; preds = %88
  %100 = load ptr, ptr %10, align 8, !tbaa !54
  %101 = getelementptr inbounds i32, ptr %100, i64 0
  %102 = load i32, ptr %101, align 4, !tbaa !9
  br label %108

103:                                              ; preds = %88
  %104 = load ptr, ptr %10, align 8, !tbaa !54
  %105 = getelementptr inbounds i32, ptr %104, i64 0
  %106 = load i32, ptr %105, align 4, !tbaa !9
  %107 = sub nsw i32 0, %106
  br label %108

108:                                              ; preds = %103, %99
  %109 = phi i32 [ %102, %99 ], [ %107, %103 ]
  %110 = icmp sle i32 %94, %109
  br label %111

111:                                              ; preds = %108, %85
  %112 = phi i1 [ false, %85 ], [ %110, %108 ]
  br i1 %112, label %113, label %120

113:                                              ; preds = %111
  %114 = load ptr, ptr %8, align 8, !tbaa !13
  %115 = getelementptr inbounds nuw %struct.SwsInternal, ptr %114, i32 0, i32 0
  %116 = getelementptr inbounds nuw %struct.SwsContext, ptr %115, i32 0, i32 8
  %117 = load i32, ptr %116, align 8, !tbaa !55
  %118 = load i32, ptr %18, align 4, !tbaa !9
  %119 = add nsw i32 %118, %117
  store i32 %119, ptr %18, align 4, !tbaa !9
  br label %65, !llvm.loop !103

120:                                              ; preds = %111
  store i32 0, ptr %15, align 4, !tbaa !9
  br label %121

121:                                              ; preds = %142, %120
  %122 = load i32, ptr %15, align 4, !tbaa !9
  %123 = load i32, ptr %12, align 4, !tbaa !9
  %124 = icmp slt i32 %122, %123
  br i1 %124, label %125, label %145

125:                                              ; preds = %121
  %126 = load ptr, ptr %17, align 8, !tbaa !4
  %127 = load ptr, ptr %16, align 8, !tbaa !4
  %128 = load i32, ptr %18, align 4, !tbaa !9
  %129 = sext i32 %128 to i64
  call void @llvm.memcpy.p0.p0.i64(ptr align 1 %126, ptr align 1 %127, i64 %129, i1 false)
  %130 = load ptr, ptr %10, align 8, !tbaa !54
  %131 = getelementptr inbounds i32, ptr %130, i64 0
  %132 = load i32, ptr %131, align 4, !tbaa !9
  %133 = load ptr, ptr %16, align 8, !tbaa !4
  %134 = sext i32 %132 to i64
  %135 = getelementptr inbounds i8, ptr %133, i64 %134
  store ptr %135, ptr %16, align 8, !tbaa !4
  %136 = load ptr, ptr %14, align 8, !tbaa !54
  %137 = getelementptr inbounds i32, ptr %136, i64 0
  %138 = load i32, ptr %137, align 4, !tbaa !9
  %139 = load ptr, ptr %17, align 8, !tbaa !4
  %140 = sext i32 %138 to i64
  %141 = getelementptr inbounds i8, ptr %139, i64 %140
  store ptr %141, ptr %17, align 8, !tbaa !4
  br label %142

142:                                              ; preds = %125
  %143 = load i32, ptr %15, align 4, !tbaa !9
  %144 = add nsw i32 %143, 1
  store i32 %144, ptr %15, align 4, !tbaa !9
  br label %121, !llvm.loop !104

145:                                              ; preds = %121
  call void @llvm.lifetime.end.p0(i64 4, ptr %18) #11
  call void @llvm.lifetime.end.p0(i64 8, ptr %17) #11
  call void @llvm.lifetime.end.p0(i64 8, ptr %16) #11
  call void @llvm.lifetime.end.p0(i64 4, ptr %15) #11
  br label %146

146:                                              ; preds = %145, %31
  %147 = load i32, ptr %12, align 4, !tbaa !9
  ret i32 %147
}