; Function Attrs: nofree norecurse nosync nounwind memory(readwrite, inaccessiblemem: none) uwtable
define internal noundef i32 @packedCopyWrapper(ptr noundef readonly captures(none) %0, ptr noundef readonly captures(none) %1, ptr noundef readonly captures(none) %2, i32 noundef %3, i32 noundef returned %4, ptr noundef readonly captures(none) %5, ptr noundef readonly captures(none) %6) #6 {
  %8 = load i32, ptr %6, align 4, !tbaa !48
  %9 = load i32, ptr %2, align 4, !tbaa !48
  %10 = icmp eq i32 %8, %9
  %11 = icmp sgt i32 %9, 0
  %or.cond = and i1 %10, %11
  br i1 %or.cond, label %12, label %.critedge.preheader

12:                                               ; preds = %7
  %13 = load ptr, ptr %5, align 8, !tbaa !49
  %14 = mul nsw i32 %8, %3
  %15 = sext i32 %14 to i64
  %16 = getelementptr inbounds i8, ptr %13, i64 %15
  %17 = load ptr, ptr %1, align 8, !tbaa !49
  %18 = mul nsw i32 %8, %4
  %19 = sext i32 %18 to i64
  tail call void @llvm.memcpy.p0.p0.i64(ptr align 1 %16, ptr align 1 %17, i64 %19, i1 false)
  br label %.loopexit

.critedge.preheader:                              ; preds = %7
  %20 = icmp sgt i32 %4, 0
  br i1 %20, label %.lr.ph, label %.loopexit

.lr.ph:                                           ; preds = %.critedge.preheader
  %21 = getelementptr inbounds nuw i8, ptr %0, i64 56
  %22 = load i32, ptr %21, align 8, !tbaa !50
  %23 = tail call i32 @llvm.abs.i32(i32 %8, i1 true)
  %24 = tail call i32 @llvm.abs.i32(i32 %9, i1 true)
  %.fr = freeze i32 %24
  %invariant.smin = tail call i32 @llvm.smin.i32(i32 %23, i32 %.fr)
  %25 = add i32 %invariant.smin, 1
  %smax = tail call i32 @llvm.smax.i32(i32 %22, i32 %25)
  %26 = icmp slt i32 %22, %25
  %umin = zext i1 %26 to i32
  %27 = add i32 %22, %umin
  %28 = sub i32 %smax, %27
  %umax = tail call i32 @llvm.umax.i32(i32 %22, i32 1)
  %29 = udiv i32 %28, %umax
  %30 = add i32 %29, %umin
  %31 = mul i32 %22, %30
  %32 = load ptr, ptr %5, align 8, !tbaa !49
  %33 = mul nsw i32 %8, %3
  %34 = sext i32 %33 to i64
  %35 = getelementptr inbounds i8, ptr %32, i64 %34
  %36 = load ptr, ptr %1, align 8, !tbaa !49
  %37 = sext i32 %31 to i64
  br label %.critedge

.critedge:                                        ; preds = %.lr.ph, %.critedge
  %.03547 = phi ptr [ %35, %.lr.ph ], [ %43, %.critedge ]
  %.03646 = phi ptr [ %36, %.lr.ph ], [ %40, %.critedge ]
  %.03745 = phi i32 [ 0, %.lr.ph ], [ %44, %.critedge ]
  tail call void @llvm.memcpy.p0.p0.i64(ptr align 1 %.03547, ptr align 1 %.03646, i64 %37, i1 false)
  %38 = load i32, ptr %2, align 4, !tbaa !48
  %39 = sext i32 %38 to i64
  %40 = getelementptr inbounds i8, ptr %.03646, i64 %39
  %41 = load i32, ptr %6, align 4, !tbaa !48
  %42 = sext i32 %41 to i64
  %43 = getelementptr inbounds i8, ptr %.03547, i64 %42
  %44 = add nuw nsw i32 %.03745, 1
  %exitcond.not = icmp eq i32 %44, %4
  br i1 %exitcond.not, label %.loopexit, label %.critedge, !llvm.loop !105

.loopexit:                                        ; preds = %.critedge, %.critedge.preheader, %12
  ret i32 %4
}